; ModuleID = '43/631.c'
source_filename = "43/631.c"
target datalayout = "e-m:e-p270:32:32-p271:32:32-p272:64:64-i64:64-f80:128-n8:16:32:64-S128"
target triple = "x86_64-pc-linux-gnu"

@.str = private unnamed_addr constant [3 x i8] c"%d\00", align 1
@.str.1 = private unnamed_addr constant [7 x i8] c"%d %d\0A\00", align 1

; Function Attrs: noinline nounwind uwtable
define dso_local i32 @isprime(i32 %0) #0 {
  %2 = alloca i32, align 4
  %3 = alloca i32, align 4
  %4 = alloca i32, align 4
  store i32 %0, i32* %3, align 4
  store i32 2, i32* %4, align 4
  br label %5

5:                                                ; preds = %16, %1
  %6 = load i32, i32* %4, align 4
  %7 = load i32, i32* %3, align 4
  %8 = icmp slt i32 %6, %7
  br i1 %8, label %9, label %19

9:                                                ; preds = %5
  %10 = load i32, i32* %3, align 4
  %11 = load i32, i32* %4, align 4
  %12 = srem i32 %10, %11
  %13 = icmp eq i32 %12, 0
  br i1 %13, label %14, label %15

14:                                               ; preds = %9
  store i32 0, i32* %2, align 4
  br label %20

15:                                               ; preds = %9
  br label %16

16:                                               ; preds = %15
  %17 = load i32, i32* %4, align 4
  %18 = add nsw i32 %17, 1
  store i32 %18, i32* %4, align 4
  br label %5

19:                                               ; preds = %5
  store i32 1, i32* %2, align 4
  br label %20

20:                                               ; preds = %19, %14
  %21 = load i32, i32* %2, align 4
  ret i32 %21
}

; Function Attrs: noinline nounwind uwtable
define dso_local i32 @main() #0 {
  %1 = alloca i32, align 4
  %2 = alloca i32, align 4
  %3 = alloca i32, align 4
  store i32 0, i32* %1, align 4
  %4 = call i32 (i8*, ...) @__isoc99_scanf(i8* getelementptr inbounds ([3 x i8], [3 x i8]* @.str, i64 0, i64 0), i32* %2)
  %5 = load i32, i32* %2, align 4
  %6 = srem i32 %5, 2
  %7 = icmp eq i32 %6, 0
  br i1 %7, label %8, label %41

8:                                                ; preds = %0
  %9 = load i32, i32* %2, align 4
  %10 = icmp sge i32 %9, 6
  br i1 %10, label %11, label %41

11:                                               ; preds = %8
  %12 = load i32, i32* %2, align 4
  %13 = icmp sle i32 %12, 10000
  br i1 %13, label %14, label %41

14:                                               ; preds = %11
  store i32 3, i32* %3, align 4
  br label %15

15:                                               ; preds = %37, %14
  %16 = load i32, i32* %3, align 4
  %17 = load i32, i32* %2, align 4
  %18 = sdiv i32 %17, 2
  %19 = icmp sle i32 %16, %18
  br i1 %19, label %20, label %40

20:                                               ; preds = %15
  %21 = load i32, i32* %3, align 4
  %22 = call i32 @isprime(i32 %21)
  %23 = icmp ne i32 %22, 0
  br i1 %23, label %24, label %36

24:                                               ; preds = %20
  %25 = load i32, i32* %2, align 4
  %26 = load i32, i32* %3, align 4
  %27 = sub nsw i32 %25, %26
  %28 = call i32 @isprime(i32 %27)
  %29 = icmp ne i32 %28, 0
  br i1 %29, label %30, label %36

30:                                               ; preds = %24
  %31 = load i32, i32* %3, align 4
  %32 = load i32, i32* %2, align 4
  %33 = load i32, i32* %3, align 4
  %34 = sub nsw i32 %32, %33
  %35 = call i32 (i8*, ...) @printf(i8* getelementptr inbounds ([7 x i8], [7 x i8]* @.str.1, i64 0, i64 0), i32 %31, i32 %34)
  br label %36

36:                                               ; preds = %30, %24, %20
  br label %37

37:                                               ; preds = %36
  %38 = load i32, i32* %3, align 4
  %39 = add nsw i32 %38, 2
  store i32 %39, i32* %3, align 4
  br label %15

40:                                               ; preds = %15
  br label %41

41:                                               ; preds = %40, %11, %8, %0
  ret i32 0
}

declare dso_local i32 @__isoc99_scanf(i8*, ...) #1

declare dso_local i32 @printf(i8*, ...) #1


!llvm.module.flags = !{!0}
!llvm.ident = !{!1}

!0 = !{i32 1, !"wchar_size", i32 4}
!1 = !{!"clang version 10.0.0-4ubuntu1 "}
