; ModuleID = 'source-C-CXX/42/631.c'
source_filename = "source-C-CXX/42/631.c"
target datalayout = "e-m:e-p270:32:32-p271:32:32-p272:64:64-i64:64-f80:128-n8:16:32:64-S128"
target triple = "x86_64-pc-linux-gnu"

@.str = private unnamed_addr constant [3 x i8] c"%d\00", align 1
@.str.1 = private unnamed_addr constant [7 x i8] c"%d %d\0A\00", align 1

; Function Attrs: nofree norecurse nosync nounwind readnone sspstrong uwtable
define dso_local i32 @isprime(i32 %0) local_unnamed_addr #0 {
  %2 = icmp sgt i32 %0, 2
  br i1 %2, label %5, label %10

3:                                                ; preds = %5
  %4 = icmp eq i32 %9, %0
  br i1 %4, label %10, label %5, !llvm.loop !5

5:                                                ; preds = %1, %3
  %6 = phi i32 [ %9, %3 ], [ 2, %1 ]
  %7 = srem i32 %0, %6
  %8 = icmp eq i32 %7, 0
  %9 = add nuw nsw i32 %6, 1
  br i1 %8, label %10, label %3

10:                                               ; preds = %5, %3, %1
  %11 = phi i32 [ 1, %1 ], [ 1, %3 ], [ 0, %5 ]
  ret i32 %11
}

; Function Attrs: argmemonly mustprogress nofree nosync nounwind willreturn
declare void @llvm.lifetime.start.p0i8(i64 immarg, i8* nocapture) #1

; Function Attrs: argmemonly mustprogress nofree nosync nounwind willreturn
declare void @llvm.lifetime.end.p0i8(i64 immarg, i8* nocapture) #1

; Function Attrs: nofree nounwind sspstrong uwtable
define dso_local i32 @main() local_unnamed_addr #2 {
  %1 = alloca i32, align 4
  %2 = bitcast i32* %1 to i8*
  call void @llvm.lifetime.start.p0i8(i64 4, i8* nonnull %2) #4
  %3 = call i32 (i8*, ...) @__isoc99_scanf(i8* getelementptr inbounds ([3 x i8], [3 x i8]* @.str, i64 0, i64 0), i32* nonnull %1)
  %4 = load i32, i32* %1, align 4, !tbaa !7
  %5 = and i32 %4, 1
  %6 = icmp eq i32 %5, 0
  %7 = add i32 %4, -6
  %8 = icmp ult i32 %7, 9995
  %9 = and i1 %8, %6
  br i1 %9, label %10, label %38

10:                                               ; preds = %0, %33
  %11 = phi i32 [ %34, %33 ], [ %4, %0 ]
  %12 = phi i32 [ %35, %33 ], [ 3, %0 ]
  br label %15

13:                                               ; preds = %15
  %14 = icmp eq i32 %19, %12
  br i1 %14, label %20, label %15, !llvm.loop !5

15:                                               ; preds = %10, %13
  %16 = phi i32 [ %19, %13 ], [ 2, %10 ]
  %17 = urem i32 %12, %16
  %18 = icmp eq i32 %17, 0
  %19 = add nuw nsw i32 %16, 1
  br i1 %18, label %33, label %13

20:                                               ; preds = %13
  %21 = sub nsw i32 %11, %12
  %22 = icmp sgt i32 %21, 2
  br i1 %22, label %25, label %30

23:                                               ; preds = %25
  %24 = icmp eq i32 %29, %21
  br i1 %24, label %30, label %25, !llvm.loop !5

25:                                               ; preds = %20, %23
  %26 = phi i32 [ %29, %23 ], [ 2, %20 ]
  %27 = srem i32 %21, %26
  %28 = icmp eq i32 %27, 0
  %29 = add nuw nsw i32 %26, 1
  br i1 %28, label %33, label %23

30:                                               ; preds = %23, %20
  %31 = call i32 (i8*, ...) @printf(i8* nonnull dereferenceable(1) getelementptr inbounds ([7 x i8], [7 x i8]* @.str.1, i64 0, i64 0), i32 %12, i32 %21)
  %32 = load i32, i32* %1, align 4, !tbaa !7
  br label %33

33:                                               ; preds = %15, %25, %30
  %34 = phi i32 [ %32, %30 ], [ %11, %25 ], [ %11, %15 ]
  %35 = add nuw nsw i32 %12, 2
  %36 = sdiv i32 %34, 2
  %37 = icmp sgt i32 %35, %36
  br i1 %37, label %38, label %10, !llvm.loop !11

38:                                               ; preds = %33, %0
  call void @llvm.lifetime.end.p0i8(i64 4, i8* nonnull %2) #4
  ret i32 0
}

; Function Attrs: nofree nounwind
declare noundef i32 @__isoc99_scanf(i8* nocapture noundef readonly, ...) local_unnamed_addr #3

; Function Attrs: nofree nounwind
declare noundef i32 @printf(i8* nocapture noundef readonly, ...) local_unnamed_addr #3


!llvm.module.flags = !{!0, !1, !2, !3}
!llvm.ident = !{!4}

!0 = !{i32 1, !"wchar_size", i32 4}
!1 = !{i32 7, !"PIC Level", i32 2}
!2 = !{i32 7, !"PIE Level", i32 2}
!3 = !{i32 7, !"uwtable", i32 1}
!4 = !{!"clang version 13.0.0"}
!5 = distinct !{!5, !6}
!6 = !{!"llvm.loop.mustprogress"}
!7 = !{!8, !8, i64 0}
!8 = !{!"int", !9, i64 0}
!9 = !{!"omnipotent char", !10, i64 0}
!10 = !{!"Simple C/C++ TBAA"}
!11 = distinct !{!11, !6}
